; Function Attrs: mustprogress uwtable
define void @_ZN4LIEF2PE12LangCodeItem5itemsERKSt13unordered_mapINSt7__cxx1112basic_stringIDsSt11char_traitsIDsESaIDsEEES8_St4hashIS8_ESt8equal_toIS8_ESaISt4pairIKS8_S8_EEE(ptr noundef nonnull align 8 dereferenceable(104) %0, ptr noundef nonnull align 8 dereferenceable(56) %1) local_unnamed_addr #3 align 2 {
  %3 = getelementptr inbounds i8, ptr %0, i64 48
  %4 = icmp eq ptr %3, %1
  br i1 %4, label %_ZNSt13unordered_mapINSt7__cxx1112basic_stringIDsSt11char_traitsIDsESaIDsEEES5_St4hashIS5_ESt8equal_toIS5_ESaISt4pairIKS5_S5_EEEaSERKSE_.exit, label %5

5:                                                ; preds = %2
  tail call void @_ZNSt10_HashtableINSt7__cxx1112basic_stringIDsSt11char_traitsIDsESaIDsEEESt4pairIKS5_S5_ESaIS8_ENSt8__detail10_Select1stESt8equal_toIS5_ESt4hashIS5_ENSA_18_Mod_range_hashingENSA_20_Default_ranged_hashENSA_20_Prime_rehash_policyENSA_17_Hashtable_traitsILb1ELb0ELb1EEEE18_M_assign_elementsIRKSL_EEvOT_(ptr noundef nonnull align 8 dereferenceable(56) %3, ptr noundef nonnull align 8 dereferenceable(56) %1)
  br label %_ZNSt13unordered_mapINSt7__cxx1112basic_stringIDsSt11char_traitsIDsESaIDsEEES5_St4hashIS5_ESt8equal_toIS5_ESaISt4pairIKS5_S5_EEEaSERKSE_.exit

_ZNSt13unordered_mapINSt7__cxx1112basic_stringIDsSt11char_traitsIDsESaIDsEEES5_St4hashIS5_ESt8equal_toIS5_ESaISt4pairIKS5_S5_EEEaSERKSE_.exit: ; preds = %2, %5
  ret void
}